(dp0
S'virtual office space'
p1
(lp2
(I1
S'0804137501'
p3
tp4
asS'business classic'
p5
(lp6
sS'professional writing'
p7
(lp8
sS'Christian Literature'
p9
(lp10
sS'online privacy'
p11
(lp12
sS'collaborative management'
p13
(lp14
(I70
S'B00H6JBFOS'
p15
tp16
asS'commute'
p17
(lp18
sS'your brand'
p19
(lp20
(I68
S'0385346948'
p21
tp22
a(I234
S'B0036S4EWI'
p23
tp24
asS'work from home moms'
p25
(lp26
(I97
S'0804137501'
p27
tp28
asS'woodworker'
p29
(lp30
sS'time management'
p31
(lp32
(I259
S'038534645X'
p33
tp34
asS'career success'
p35
(lp36
(I153
S'0307888908'
p37
tp38
a(I176
S'0553446967'
p39
tp40
a(I197
S'0767927419'
p41
tp42
asS'apple'
p43
(lp44
sS'relationships'
p45
(lp46
sS'self discovery'
p47
(lp48
sS'achieving happiness'
p49
(lp50
(I1
S'0770436730'
p51
tp52
a(I79
S'0385516665'
p53
tp54
a(I127
S'B001VT3L5A'
p55
tp56
a(I294
S'0804141231'
p57
tp58
asS'navigating the workplace'
p59
(lp60
(I6
S'B00GL3PZ0K'
p61
tp62
asS'dream team'
p63
(lp64
sS'Kansas'
p65
(lp66
sS'creative value'
p67
(lp68
(I50
S'B00ALBR6LO'
p69
tp70
asS'business psychology'
p71
(lp72
(I27
S'0307591549'
p73
tp74
a(I99
S'0385531737'
p75
tp76
a(I114
S'B00N6PESWC'
p77
tp78
a(I120
S'B00G1J1D28'
p79
tp80
a(I283
S'B0030DHPGQ'
p81
tp82
asS'work remotely'
p83
(lp84
(I10
S'0804137501'
p85
tp86
asS'adding value'
p87
(lp88
(I225
S'0307888908'
p89
tp90
asS'personal success'
p91
(lp92
sS'personal data collection'
p93
(lp94
(I40
S'0385347596'
p95
tp96
asS'health and human potential'
p97
(lp98
(I197
S'0804136726'
p99
tp100
asS'remote work'
p101
(lp102
(I2
S'B00C0ALZ0W'
p103
tp104
a(I61
S'0307951529'
p105
tp106
asS'Christian Romance'
p107
(lp108
sS'founders'
p109
(lp110
sS'connecting'
p111
(lp112
sS'pressure traps'
p113
(lp114
(I5
S'B00N6PESWC'
p115
tp116
asS'positive change'
p117
(lp118
(I10
S'0770436730'
p119
tp120
asS'breakthrough creativity'
p121
(lp122
(I59
S'0770434002'
p123
tp124
asS'privacy settings'
p125
(lp126
(I27
S'B00M60PIXQ'
p127
tp128
asS'Spring'
p129
(lp130
sS'telecommuting jobs'
p131
(lp132
(I16
S'B00C0ALZ0W'
p133
tp134
a(I213
S'0307588777'
p135
tp136
asS'love triangle'
p137
(lp138
sS'buggy romance'
p139
(lp140
(I38
S'B007REKL1A'
p141
tp142
a(I44
S'0307446557'
p143
tp144
a(I46
S'B00RKO6OXG'
p145
tp146
a(I52
S'0307446530'
p147
tp148
a(I57
S'B00N6PBH6C'
p149
tp150
a(I62
S'B00G1IV9T6'
p151
tp152
a(I75
S'B0019O6J2E'
p153
tp154
asS'graduation books'
p155
(lp156
sS'Old Order Mennonite'
p157
(lp158
(I29
S'0307730026'
p159
tp160
a(I30
S'1601426992'
p161
tp162
a(I34
S'0307731332'
p163
tp164
a(I36
S'0307729982'
p165
tp166
a(I37
S'1400073960'
p167
tp168
a(I49
S'0307446530'
p169
tp170
a(I55
S'0307446557'
p171
tp172
a(I60
S'1400072921'
p173
tp174
a(I108
S'0307731316'
p175
tp176
a(I127
S'0307729958'
p177
tp178
a(I166
S'1601427670'
p179
tp180
a(I170
S'1400073987'
p181
tp182
a(I203
S'1400072948'
p183
tp184
a(I221
S'1400073979'
p185
tp186
asS're-think'
p187
(lp188
sS'prayer'
p189
(lp190
sS'Religious Romance'
p191
(lp192
sS'Englischer'
p193
(lp194
(I19
S'B00RKO6OXG'
p195
tp196
a(I30
S'B007REKL1A'
p197
tp198
a(I54
S'B00N6PBH6C'
p199
tp200
a(I85
S'B00G1IV9T6'
p201
tp202
a(I102
S'B00540NW8S'
p203
tp204
a(I114
S'B002KJA964'
p205
tp206
a(I123
S'B0019O6J2E'
p207
tp208
a(I140
S'B002PMW112'
p209
tp210
asS'positive genius'
p211
(lp212
(I2
S'0770436730'
p213
tp214
asS'remote business'
p215
(lp216
(I3
S'B00C0ALZ0W'
p217
tp218
asS'work from home careers'
p219
(lp220
(I82
S'0307951529'
p221
tp222
a(I173
S'0804137501'
p223
tp224
asS'career plans'
p225
(lp226
(I40
S'0307888908'
p227
tp228
asS'making connections'
p229
(lp230
(I299
S'B00H6JBFOS'
p231
tp232
asS'minimalist'
p233
(lp234
sS'career advice'
p235
(lp236
(I1
S'0553446967'
p237
tp238
a(I48
S'0767927419'
p239
tp240
asS'culture clash'
p241
(lp242
sS'career guides'
p243
(lp244
sS'unleash genius'
p245
(lp246
(I24
S'B00ALBR6LO'
p247
tp248
asS'clean fiction'
p249
(lp250
sS'communication skills'
p251
(lp252
sS'telecommute'
p253
(lp254
(I13
S'B00C0ALZ0W'
p255
tp256
asS'job for tomorrow'
p257
(lp258
(I15
S'B0050DIWHU'
p259
tp260
a(I68
S'0804140782'
p261
tp262
a(I237
S'0767926129'
p263
tp264
a(I247
S'0385346654'
p265
tp266
asS'woodworking'
p267
(lp268
sS'minimalism'
p269
(lp270
(I4
S'0804137382'
p271
tp272
asS'personal growth'
p273
(lp274
sS'philosophy of creativity'
p275
(lp276
(I96
S'B00ALBR6LO'
p277
tp278
asS'lifeline relationships'
p279
(lp280
(I16
S'B0020HRVG2'
p281
tp282
asS'essentialist'
p283
(lp284
(I1
S'0804137382'
p285
tp286
asS'soft skills'
p287
(lp288
(I171
S'B00GL3PZ0K'
p289
tp290
a(I236
S'0804140782'
p291
tp292
asS'personalized data'
p293
(lp294
(I27
S'B00M60PIXQ'
p295
tp296
asS'personal data'
p297
(lp298
sS'working remotely'
p299
(lp300
(I10
S'B00C0ALZ0W'
p301
tp302
a(I134
S'1400082471'
p303
tp304
asS'inner circle'
p305
(lp306
sS'professional success'
p307
(lp308
(I29
S'0385346654'
p309
tp310
a(I249
S'B00N6PESWC'
p311
tp312
asS'gardening'
p313
(lp314
sS'power of relationships'
p315
(lp316
(I242
S'B00H6JBFOS'
p317
tp318
asS'finding happiness'
p319
(lp320
(I159
S'B00BVJG2P6'
p321
tp322
asS'living a good life'
p323
(lp324
(I24
S'0804141444'
p325
tp326
asS'Amish'
p327
(lp328
sS'startup'
p329
(lp330
(I1
S'0804139296'
p331
tp332
a(I4
S'0307887898'
p333
tp334
a(I6
S'0307951529'
p335
tp336
a(I17
S'0307888908'
p337
tp338
a(I180
S'0307463745'
p339
tp340
asS'achieve more'
p341
(lp342
(I9
S'0307716902'
p343
tp344
a(I50
S'B00G1J1D28'
p345
tp346
asS'under one roof'
p347
(lp348
(I64
S'B00C0ALZ0W'
p349
tp350
a(I132
S'0385528752'
p351
tp352
a(I182
S'0385346654'
p353
tp354
asS'corporate sparring'
p355
(lp356
(I1
S'0385521332'
p357
tp358
asS'success formula'
p359
(lp360
(I106
S'B00BVJG2P6'
p361
tp362
a(I271
S'0307591549'
p363
tp364
asS'startup success'
p365
(lp366
(I4
S'0307888908'
p367
tp368
a(I41
S'0307887898'
p369
tp370
a(I278
S'0385512481'
p371
tp372
asS'making friends'
p373
(lp374
(I288
S'0307720217'
p375
tp376
asS'Women%27s Christian Fiction'
p377
(lp378
sS'AEI'
p379
(lp380
(I31
S'B00GL3PZ0K'
p381
tp382
asS'business relationships'
p383
(lp384
(I122
S'0385346654'
p385
tp386
a(I232
S'0385512058'
p387
tp388
asS'adult life'
p389
(lp390
sS'performance anxiety'
p391
(lp392
(I22
S'0804136726'
p393
tp394
asS'business inspiration'
p395
(lp396
(I134
S'B0050DIWHU'
p397
tp398
a(I250
S'B00BVJG2P6'
p399
tp400
a(I261
S'B00BVJG2P6'
p401
tp402
asS'productivity tools'
p403
(lp404
(I24
S'B00G1J1D28'
p405
tp406
asS'Contemporary Christian Romance'
p407
(lp408
sS'face pressure'
p409
(lp410
(I4
S'0804136726'
p411
tp412
asS'vital few'
p413
(lp414
(I9
S'0804137382'
p415
tp416
asS'BNB'
p417
(lp418
(I36
S'B00N6PBH6C'
p419
tp420
asS'Contemporary Christian Fiction'
p421
(lp422
sS'digital future'
p423
(lp424
(I181
S'0385347596'
p425
tp426
asS'self growth'
p427
(lp428
sS'creative'
p429
(lp430
(I2
S'038534936X'
p431
tp432
asS'work at home jobs'
p433
(lp434
(I115
S'0307951529'
p435
tp436
a(I230
S'B002OK2ON0'
p437
tp438
asS'self help'
p439
(lp440
sS'bed & breakfast'
p441
(lp442
sS'twins'
p443
(lp444
sS'unlock potential'
p445
(lp446
(I106
S'B00ALBR6LO'
p447
tp448
asS'Old Order Amish'
p449
(lp450
(I15
S'1601426992'
p451
tp452
a(I18
S'0307729982'
p453
tp454
a(I25
S'B007REKL1A'
p455
tp456
a(I31
S'0307446557'
p457
tp458
a(I33
S'1400073960'
p459
tp460
a(I53
S'0307730042'
p461
tp462
a(I54
S'0307730069'
p463
tp464
a(I64
S'B00N6PBH6C'
p465
tp466
a(I67
S'B00N6PBH6C'
p467
tp468
a(I74
S'B0019O6J2E'
p469
tp470
a(I87
S'0307446530'
p471
tp472
a(I217
S'1601427670'
p473
tp474
asS'innovation'
p475
(lp476
(I18
S'0307887898'
p477
tp478
a(I23
S'B000JMKN9C'
p479
tp480
a(I29
S'0385512074'
p481
tp482
a(I103
S'0804139296'
p483
tp484
a(I266
S'038534936X'
p485
tp486
asS'success under pressure'
p487
(lp488
(I1
S'0804136726'
p489
tp490
asS'rethink'
p491
(lp492
(I143
S'B00ALBR6LO'
p493
tp494
asS'unlocking your creativity'
p495
(lp496
(I14
S'0770434002'
p497
tp498
asS'buggy fiction'
p499
(lp500
(I28
S'B007REKL1A'
p501
tp502
a(I37
S'B00RKO6OXG'
p503
tp504
a(I41
S'B00N6PBH6C'
p505
tp506
a(I50
S'B00G1IV9T6'
p507
tp508
a(I85
S'B00540NW8S'
p509
tp510
a(I91
S'B002KJA964'
p511
tp512
a(I101
S'B0019O6J2E'
p513
tp514
a(I119
S'B002PMW112'
p515
tp516
asS'professional development'
p517
(lp518
sS'37 signals'
p519
(lp520
(I2
S'0804137501'
p521
tp522
a(I4
S'0307463745'
p523
tp524
asS'bad boss'
p525
(lp526
(I275
S'0767922859'
p527
tp528
asS'co-working space'
p529
(lp530
(I8
S'0804137501'
p531
tp532
a(I12
S'0307951529'
p533
tp534
asS'career growth'
p535
(lp536
(I36
S'0553446967'
p537
tp538
a(I67
S'0307888908'
p539
tp540
asS'business'
p541
(lp542
(I15
S'0307951529'
p543
tp544
a(I20
S'0804139296'
p545
tp546
a(I38
S'0307887898'
p547
tp548
asS'online reputation management'
p549
(lp550
(I19
S'0385347596'
p551
tp552
asS'Florida'
p553
(lp554
sS'widow'
p555
(lp556
sS'callaboration'
p557
(lp558
(I6
S'0804137501'
p559
tp560
asS'building relationships'
p561
(lp562
(I149
S'B00H6JBFOS'
p563
tp564
asS'how to be more productive at work'
p565
(lp566
(I16
S'B00G1J1D28'
p567
tp568
asS'Women%27s Religious Fiction'
p569
(lp570
(I234
S'B007REKL1A'
p571
tp572
asS'personal branding'
p573
(lp574
(I175
S'B0050DIWHU'
p575
tp576
asS'COTE'
p577
(lp578
sS'pennsylvania'
p579
(lp580
sS'science of happiness'
p581
(lp582
(I44
S'0307591549'
p583
tp584
a(I60
S'0770436730'
p585
tp586
asS'fullest potential'
p587
(lp588
(I37
S'B00BVJG2P6'
p589
tp590
a(I157
S'0307591549'
p591
tp592
a(I161
S'0307591549'
p593
tp594
asS'clean reads'
p595
(lp596
(I152
S'B00RKO6OXG'
p597
tp598
a(I163
S'B007REKL1A'
p599
tp600
asS'networking'
p601
(lp602
(I36
S'0385512058'
p603
tp604
a(I39
S'0385346654'
p605
tp606
asS'full potential'
p607
(lp608
(I184
S'B00ALBR6LO'
p609
tp610
asS'increased productivity'
p611
(lp612
(I34
S'B00G1J1D28'
p613
tp614
asS'college graduation gifts'
p615
(lp616
(I235
S'0804141444'
p617
tp618
asS'work at home'
p619
(lp620
(I238
S'B002OK2ON0'
p621
tp622
asS'bed and breakfast'
p623
(lp624
sS'parenthood'
p625
(lp626
sS'connecting to people'
p627
(lp628
(I128
S'B00H6JBFOS'
p629
tp630
a(I262
S'038551624X'
p631
tp632
a(I276
S'0804139296'
p633
tp634
asS'business success'
p635
(lp636
sS'diner'
p637
(lp638
sS'virtual workspace'
p639
(lp640
(I6
S'B00C0ALZ0W'
p641
tp642
asS'overcoming obstacles'
p643
(lp644
(I55
S'B00N6PESWC'
p645
tp646
asS'Mennonite'
p647
(lp648
sS'positive psychology'
p649
(lp650
(I19
S'0307591549'
p651
tp652
asS'mistaken identity'
p653
(lp654
sS'getting ahead'
p655
(lp656
(I1
S'0804141444'
p657
tp658
a(I8
S'0307351130'
p659
tp660
a(I118
S'B00H6JBFOS'
p661
tp662
asS'essential'
p663
(lp664
(I7
S'0804137382'
p665
tp666
asS'digital footprint'
p667
(lp668
(I3
S'0385347596'
p669
tp670
asS'sparring'
p671
(lp672
(I57
S'B0020HRVG2'
p673
tp674
asS'bonnet romance'
p675
(lp676
(I18
S'B007REKL1A'
p677
tp678
a(I31
S'B00RKO6OXG'
p679
tp680
a(I32
S'1400073960'
p681
tp682
a(I59
S'0307446557'
p683
tp684
a(I69
S'0307446530'
p685
tp686
a(I77
S'B00N6PBH6C'
p687
tp688
a(I83
S'B00G1IV9T6'
p689
tp690
a(I92
S'B0019O6J2E'
p691
tp692
asS'less is more'
p693
(lp694
(I26
S'0385347022'
p695
tp696
asS'amish fiction'
p697
(lp698
(I190
S'0307730026'
p699
tp700
a(I269
S'B00SPW377S'
p701
tp702
a(I302
S'0307729982'
p703
tp704
asS'inspirational fiction'
p705
(lp706
sS'American Enterprise Institute'
p707
(lp708
(I88
S'0804141444'
p709
tp710
asS'success stories'
p711
(lp712
sS'arts and crafts'
p713
(lp714
sS'Amish Romance'
p715
(lp716
sS'positive inception'
p717
(lp718
(I2
S'B00BVJG2P6'
p719
tp720
asS'formula for success'
p721
(lp722
(I148
S'0770436730'
p723
tp724
a(I274
S'0307591549'
p725
tp726
asS'self-improvement'
p727
(lp728
(I235
S'0804136726'
p729
tp730
asS'psychic'
p731
(lp732
sS'trivial many'
p733
(lp734
(I4
S'0804137382'
p735
tp736
asS'rediscover creativity'
p737
(lp738
(I2
S'B00ALBR6LO'
p739
tp740
asS'digital privacy'
p741
(lp742
(I43
S'0385347596'
p743
tp744
asS'apple orchard'
p745
(lp746
(I35
S'0307730026'
p747
tp748
a(I50
S'0307729982'
p749
tp750
a(I60
S'0307730042'
p751
tp752
a(I181
S'0307730069'
p753
tp754
asS'nerves of steel'
p755
(lp756
(I15
S'B00N6PESWC'
p757
tp758
a(I102
S'140008198X'
p759
tp760
asS'Religious Fiction'
p761
(lp762
sS'twin'
p763
(lp764
sS'privacy advocate'
p765
(lp766
(I11
S'B00M60PIXQ'
p767
tp768
asS'time management tools'
p769
(lp770
(I132
S'0804137382'
p771
tp772
asS'social media networking'
p773
(lp774
sS'self-help'
p775
(lp776
sS'single parent'
p777
(lp778
sS'decision making'
p779
(lp780
sS'personal development'
p781
(lp782
sS'social media privacy'
p783
(lp784
(I206
S'0385347596'
p785
tp786
asS'art'
p787
(lp788
sS'corporate ladder'
p789
(lp790
(I29
S'B00H6JBFOS'
p791
tp792
asS'office manners'
p793
(lp794
(I6
S'B00GL3PZ0K'
p795
tp796
asS'increase productivity'
p797
(lp798
(I124
S'B00G1J1D28'
p799
tp800
asS'what really matters'
p801
(lp802
(I217
S'0804137382'
p803
tp804
a(I245
S'030745178X'
p805
tp806
asS'disruptive innovation'
p807
(lp808
(I47
S'0385512074'
p809
tp810
a(I49
S'0307887898'
p811
tp812
a(I50
S'0307336697'
p813
tp814
a(I75
S'B00ALBR6LO'
p815
tp816
asS'building trust'
p817
(lp818
(I130
S'B0020HRVG2'
p819
tp820
asS'unlock your potential'
p821
(lp822
(I207
S'0770434002'
p823
tp824
asS'creativity'
p825
(lp826
(I17
S'038534936X'
p827
tp828
a(I148
S'0804139296'
p829
tp830
asS'Englischer fiction'
p831
(lp832
(I5
S'0307731332'
p833
tp834
a(I6
S'B00RKO6OXG'
p835
tp836
a(I7
S'B007REKL1A'
p837
tp838
a(I12
S'B00G1IV9T6'
p839
tp840
a(I15
S'B00540NW8S'
p841
tp842
a(I16
S'B002KJA964'
p843
tp844
a(I19
S'B0019O6J2E'
p845
tp846
a(I20
S'B002PMW112'
p847
tp848
asS'plain fiction'
p849
(lp850
(I208
S'B007REKL1A'
p851
tp852
a(I226
S'B00RKO6OXG'
p853
tp854
asS'achieving success'
p855
(lp856
(I13
S'0770436730'
p857
tp858
asS'essential living'
p859
(lp860
sS'stress management'
p861
(lp862
sS'pressure management'
p863
(lp864
(I90
S'B00N6PESWC'
p865
tp866
asS'leadership'
p867
(lp868
(I122
S'0385523866'
p869
tp870
a(I195
S'0804141231'
p871
tp872
asS'reputation economics'
p873
(lp874
(I1
S'0385347596'
p875
tp876
asS'work from home opportunities'
p877
(lp878
(I50
S'0804137501'
p879
tp880
asS'handling pressure'
p881
(lp882
(I1
S'0804136726'
p883
tp884
asS'performance under pressure'
p885
(lp886
(I1
S'0804136726'
p887
tp888
asS'after happiness'
p889
(lp890
(I37
S'B00BVJG2P6'
p891
tp892
asS'creative genius'
p893
(lp894
(I22
S'0770434002'
p895
tp896
a(I289
S'B00BVJG2P6'
p897
tp898
asS'building deep relationships'
p899
(lp900
(I3
S'0385521332'
p901
tp902
a(I132
S'0307589137'
p903
tp904
asS'mental focus'
p905
(lp906
(I139
S'B00G1J1D28'
p907
tp908
asS'Mennonite Romance'
p909
(lp910
sS'handling stress'
p911
(lp912
(I15
S'B00N6PESWC'
p913
tp914
a(I137
S'0307591549'
p915
tp916
asS'unleash creativity'
p917
(lp918
(I32
S'B00ALBR6LO'
p919
tp920
a(I124
S'038534936X'
p921
tp922
asS'connecting to the world'
p923
(lp924
(I126
S'0385346654'
p925
tp926
asS'millenial privacy'
p927
(lp928
(I1
S'0385347596'
p929
tp930
asS'buggy'
p931
(lp932
(I298
S'B00RKO6OXG'
p933
tp934
asS'trusted team'
p935
(lp936
(I45
S'B0020HRVG2'
p937
tp938
asS'online privacy issues'
p939
(lp940
(I44
S'0385347596'
p941
tp942
asS'achieving potential'
p943
(lp944
(I21
S'B00ALBR6LO'
p945
tp946
a(I23
S'B00BVJG2P6'
p947
tp948
asS'christian fiction'
p949
(lp950
sS'working from home'
p951
(lp952
sS'existential intelligence'
p953
(lp954
(I10
S'B0020HRVG2'
p955
tp956
asS'success accelerants'
p957
(lp958
(I1
S'0770436730'
p959
tp960
asS'inspirational romance'
p961
(lp962
sS'real estate footprint'
p963
(lp964
(I2
S'B00C0ALZ0W'
p965
tp966
asS'IHHP'
p967
(lp968
(I2
S'0804136726'
p969
tp970
asS'invest in yourself'
p971
(lp972
(I4
S'0307888908'
p973
tp974
a(I26
S'0385522614'
p975
tp976
asS'online reputation'
p977
(lp978
(I14
S'0385347596'
p979
tp980
asS'know yourself'
p981
(lp982
(I259
S'B00ALBR6LO'
p983
tp984
asS'power of pressure'
p985
(lp986
sS'B&B'
p987
(lp988
sS'Contemporary Religious Fiction'
p989
(lp990
(I284
S'0307731332'
p991
tp992
asS'holiday'
p993
(lp994
sS'Kapp'
p995
(lp996
(I55
S'B00RKO6OXG'
p997
tp998
a(I79
S'B007REKL1A'
p999
tp1000
a(I128
S'B00N6PBH6C'
p1001
tp1002
a(I153
S'B00G1IV9T6'
p1003
tp1004
asS'Mennonite fiction'
p1005
(lp1006
(I111
S'B007REKL1A'
p1007
tp1008
a(I122
S'B00RKO6OXG'
p1009
tp1010
a(I231
S'0307731316'
p1011
tp1012
a(I262
S'B00N6PBH6C'
p1013
tp1014
asS'digital reputation'
p1015
(lp1016
(I1
S'0385347596'
p1017
tp1018
asS'plain'
p1019
(lp1020
sS'restaurant'
p1021
(lp1022
sS'career advancement'
p1023
(lp1024
(I14
S'0553446967'
p1025
tp1026
a(I25
S'B00BVJG2P6'
p1027
tp1028
a(I41
S'B00GL3PZ0K'
p1029
tp1030
asS'meaningful relationships'
p1031
(lp1032
(I22
S'0385346654'
p1033
tp1034
a(I75
S'0385521332'
p1035
tp1036
asS'pressure solutions'
p1037
(lp1038
(I241
S'B00N6PESWC'
p1039
tp1040
asS'building relationships at work'
p1041
(lp1042
(I19
S'0385521332'
p1043
tp1044
a(I296
S'0385347618'
p1045
tp1046
asS'personal data protection'
p1047
(lp1048
(I47
S'0385347596'
p1049
tp1050
asS'career guide'
p1051
(lp1052
sS'meaningful connections'
p1053
(lp1054
(I16
S'B00H6JBFOS'
p1055
tp1056
a(I80
S'0385529066'
p1057
tp1058
a(I137
S'0307888908'
p1059
tp1060
a(I154
S'0770436730'
p1061
tp1062
a(I286
S'030746170X'
p1063
tp1064
asS'work from home'
p1065
(lp1066
sS'reputation management'
p1067
(lp1068
(I19
S'0385347596'
p1069
tp1070
asS'motivational books'
p1071
(lp1072
sS'novella'
p1073
(lp1074
sS'effective time management'
p1075
(lp1076
(I109
S'0804137382'
p1077
tp1078
asS'career development'
p1079
(lp1080
(I164
S'0553446967'
p1081
tp1082
a(I166
S'0767927419'
p1083
tp1084
asS'intelligent risk'
p1085
(lp1086
(I26
S'B0050DIWHU'
p1087
tp1088
asS'personal brand'
p1089
(lp1090
(I34
S'038552627X'
p1091
tp1092
a(I106
S'B0050DIWHU'
p1093
tp1094
asS'mental clairty'
p1095
(lp1096
(I3
S'0804137382'
p1097
tp1098
asS'Amish recipes'
p1099
(lp1100
(I32
S'B007REKL1A'
p1101
tp1102
a(I41
S'0307729982'
p1103
tp1104
a(I124
S'0307730042'
p1105
tp1106
a(I127
S'B00540NW8S'
p1107
tp1108
a(I132
S'B00540NW8S'
p1109
tp1110
asS'Amish cooking'
p1111
(lp1112
(I20
S'0307729982'
p1113
tp1114
a(I37
S'B007REKL1A'
p1115
tp1116
a(I110
S'0307446557'
p1117
tp1118
asS'bonnet fiction'
p1119
(lp1120
(I11
S'B00RKO6OXG'
p1121
tp1122
a(I13
S'B007REKL1A'
p1123
tp1124
a(I30
S'B00N6PBH6C'
p1125
tp1126
a(I35
S'B00N6PBH6C'
p1127
tp1128
a(I48
S'B00G1IV9T6'
p1129
tp1130
a(I81
S'B002KJA964'
p1131
tp1132
a(I88
S'B0019O6J2E'
p1133
tp1134
a(I99
S'B00540NW8S'
p1135
tp1136
a(I102
S'B002PMW112'
p1137
tp1138
asS'work from home jobs'
p1139
(lp1140
(I115
S'0307951529'
p1141
tp1142
asS'add value'
p1143
(lp1144
(I26
S'B0050DIWHU'
p1145
tp1146
asS'being more productive'
p1147
(lp1148
(I17
S'0804137382'
p1149
tp1150
asS'personal improvement'
p1151
(lp1152
(I223
S'B00N6PESWC'
p1153
tp1154
asS'college graduation books'
p1155
(lp1156
(I116
S'0804141444'
p1157
tp1158
asS'plain romance'
p1159
(lp1160
(I131
S'B00RKO6OXG'
p1161
tp1162
a(I306
S'1400073960'
p1163
tp1164
asS'Englisher romance'
p1165
(lp1166
sS'clean romance'
p1167
(lp1168
sS'relationship building'
p1169
(lp1170
(I150
S'B00H6JBFOS'
p1171
tp1172
asS'Christmas'
p1173
(lp1174
sS'digital privacy issues'
p1175
(lp1176
(I3
S'0385347596'
p1177
tp1178
asS'garden'
p1179
(lp1180
sS'business classics'
p1181
(lp1182
(I206
S'B00H6JBFOS'
p1183
tp1184
asS'positive inspiration'
p1185
(lp1186
(I81
S'0770436730'
p1187
tp1188
asS'conversion'
p1189
(lp1190
sS'transform your career'
p1191
(lp1192
(I2
S'0307888908'
p1193
tp1194
asS'arts & crafts'
p1195
(lp1196
sS'change your thinking'
p1197
(lp1198
(I256
S'0770436730'
p1199
tp1200
a(I257
S'0770436730'
p1201
tp1202
asS'professional relationships'
p1203
(lp1204
(I26
S'0385346654'
p1205
tp1206
asS'online presense'
p1207
(lp1208
(I2
S'B00M60PIXQ'
p1209
tp1210
asS'unlock your creativity'
p1211
(lp1212
(I36
S'0770434002'
p1213
tp1214
asS'less but better'
p1215
(lp1216
(I20
S'0804137382'
p1217
tp1218
a(I50
S'0307339459'
p1219
tp1220
asS'professional inspiration'
p1221
(lp1222
(I142
S'B0050DIWHU'
p1223
tp1224
a(I223
S'B00BVJG2P6'
p1225
tp1226
asS'getting what you want'
p1227
(lp1228
(I124
S'0804141444'
p1229
tp1230
a(I228
S'0307716902'
p1231
tp1232
a(I254
S'0385346654'
p1233
tp1234
asS'widowhood'
p1235
(lp1236
(I166
S'1400073960'
p1237
tp1238
asS'rape'
p1239
(lp1240
sS'living well'
p1241
(lp1242
sS'shunning'
p1243
(lp1244
(I114
S'1400072921'
p1245
tp1246
asS'time management skills'
p1247
(lp1248
(I284
S'B00G1J1D28'
p1249
tp1250
asS'remote jobs'
p1251
(lp1252
(I2
S'0804137501'
p1253
tp1254
asS'self improvement'
p1255
(lp1256
sS'bonnet'
p1257
(lp1258
(I187
S'B00RKO6OXG'
p1259
tp1260
a(I244
S'B007REKL1A'
p1261
tp1262
asS'switched at birth'
p1263
(lp1264
(I85
S'B00RKO6OXG'
p1265
tp1266
asS'brand reputation'
p1267
(lp1268
(I4
S'0385347596'
p1269
tp1270
asS'design your life'
p1271
(lp1272
sS'brothers'
p1273
(lp1274
sS'goal-setting'
p1275
(lp1276
sS'decisions under pressure'
p1277
(lp1278
(I1
S'0804136726'
p1279
tp1280
a(I94
S'0804137757'
p1281
tp1282
a(I220
S'0307460266'
p1283
tp1284
a(I246
S'0307460266'
p1285
tp1286
asS'increasing productivity'
p1287
(lp1288
(I45
S'B00G1J1D28'
p1289
tp1290
a(I135
S'0307887898'
p1291
tp1292
a(I166
S'038534645X'
p1293
tp1294
a(I180
S'0307719227'
p1295
tp1296
asS'self-discovery'
p1297
(lp1298
sS'decision-making'
p1299
(lp1300
(I165
S'0307956393'
p1301
tp1302
asS'Advent'
p1303
(lp1304
sS'how to be more produtive'
p1305
(lp1306
(I1
S'0804137382'
p1307
tp1308
asS'entrepreneurship'
p1309
(lp1310
(I2
S'0307951529'
p1311
tp1312
a(I6
S'0804139296'
p1313
tp1314
a(I10
S'0307887898'
p1315
tp1316
a(I148
S'0307463745'
p1317
tp1318
asS'Christian Fiction'
p1319
(lp1320
sS'achieve potential'
p1321
(lp1322
(I172
S'B00ALBR6LO'
p1323
tp1324
asS'data privacy'
p1325
(lp1326
sS'privacy issues'
p1327
(lp1328
(I294
S'B00M60PIXQ'
p1329
tp1330
asS'work remotely from home'
p1331
(lp1332
(I4
S'B00C0ALZ0W'
p1333
tp1334
asS'first job after college'
p1335
(lp1336
(I14
S'0804141444'
p1337
tp1338
a(I24
S'0385346654'
p1339
tp1340
asS'build a career'
p1341
(lp1342
(I8
S'0307888908'
p1343
tp1344
a(I103
S'0553446967'
p1345
tp1346
a(I244
S'0767927672'
p1347
tp1348
asS'unlocking potential'
p1349
(lp1350
(I119
S'038534936X'
p1351
tp1352
asS'reputation rich'
p1353
(lp1354
(I1
S'0385347596'
p1355
tp1356
a(I10
S'0307341453'
p1357
tp1358
asS'psychology'
p1359
(lp1360
sS'power of reputation'
p1361
(lp1362
(I11
S'0385347596'
p1363
tp1364
asS'reputation.com'
p1365
(lp1366
(I1
S'0385347596'
p1367
tp1368
asS'premonitions'
p1369
(lp1370
(I182
S'B007REKL1A'
p1371
tp1372
a(I236
S'B00G1IV9T6'
p1373
tp1374
asS'Amish quilt'
p1375
(lp1376
(I32
S'0307729958'
p1377
tp1378
a(I55
S'B0019O6J2E'
p1379
tp1380
a(I59
S'1601427131'
p1381
tp1382
a(I99
S'B0019O6J2O'
p1383
tp1384
a(I100
S'B00139XSKQ'
p1385
tp1386
asS'orchard'
p1387
(lp1388
(I149
S'0307730026'
p1389
tp1390
a(I184
S'0307729982'
p1391
tp1392
a(I189
S'0307730069'
p1393
tp1394
a(I203
S'0307730042'
p1395
tp1396
asS'privacy management'
p1397
(lp1398
sS'telecommuting'
p1399
(lp1400
(I1
S'B00C0ALZ0W'
p1401
tp1402
asS'professional growth'
p1403
(lp1404
(I31
S'B00H6JBFOS'
p1405
tp1406
a(I84
S'B00BVJG2P6'
p1407
tp1408
a(I124
S'B00GL3PZ0K'
p1409
tp1410
a(I129
S'B00GL3PZ0K'
p1411
tp1412
a(I135
S'B0050DIWHU'
p1413
tp1414
asS'workplace culture'
p1415
(lp1416
(I20
S'0767920570'
p1417
tp1418
asS'building a career'
p1419
(lp1420
(I33
S'0307719561'
p1421
tp1422
a(I83
S'0307888908'
p1423
tp1424
a(I112
S'0553446967'
p1425
tp1426
asS'trusting relationships'
p1427
(lp1428
(I2
S'0385521332'
p1429
tp1430
a(I51
S'0385346654'
p1431
tp1432
asS'nature of pressure'
p1433
(lp1434
(I4
S'0804136726'
p1435
tp1436
asS'Maine'
p1437
(lp1438
sS'adapt to the future'
p1439
(lp1440
(I1
S'0307888908'
p1441
tp1442
asS'deep relationships'
p1443
(lp1444
(I17
S'0385521332'
p1445
tp1446
asS'college graduation gift'
p1447
(lp1448
(I281
S'0804141444'
p1449
tp1450
asS'interview stress'
p1451
(lp1452
(I4
S'B00N6PESWC'
p1453
tp1454
asS'startup founders'
p1455
(lp1456
(I5
S'0307888908'
p1457
tp1458
a(I15
S'0307887898'
p1459
tp1460
a(I31
S'0804139296'
p1461
tp1462
asS'power of choice'
p1463
(lp1464
(I131
S'B00G1J1D28'
p1465
tp1466
a(I265
S'0307719227'
p1467
tp1468
asS'spreading happiness'
p1469
(lp1470
(I1
S'0770436730'
p1471
tp1472
a(I3
S'0307591549'
p1473
tp1474
asS'building trusting relationships'
p1475
(lp1476
(I2
S'0385521332'
p1477
tp1478
asS'positive thinking'
p1479
(lp1480
sS'social media mistakes'
p1481
(lp1482
(I87
S'0385347596'
p1483
tp1484
asS'outside the box thinking'
p1485
(lp1486
(I149
S'0770434002'
p1487
tp1488
as.