(dp0
S'virtual office space'
p1
(lp2
(I2
S'0804137501'
p3
tp4
asS'business classic'
p5
(lp6
sS'professional writing'
p7
(lp8
(I237
S'B00GL3PZ0K'
p9
tp10
asS'Christian Literature'
p11
(lp12
sS'online privacy'
p13
(lp14
sS'collaborative management'
p15
(lp16
(I113
S'B00H6JBFOS'
p17
tp18
asS'commute'
p19
(lp20
sS'your brand'
p21
(lp22
(I16
S'0385346948'
p23
tp24
a(I224
S'B0036S4EWI'
p25
tp26
asS'work from home moms'
p27
(lp28
(I95
S'B00C0ALZ0W'
p29
tp30
a(I120
S'0767930533'
p31
tp32
asS'woodworker'
p33
(lp34
sS'time management'
p35
(lp36
(I305
S'038534645X'
p37
tp38
asS'career success'
p39
(lp40
(I163
S'0553446967'
p41
tp42
a(I197
S'0767927419'
p43
tp44
asS'apple'
p45
(lp46
sS'relationships'
p47
(lp48
sS'self discovery'
p49
(lp50
sS'achieving happiness'
p51
(lp52
(I1
S'0770436730'
p53
tp54
a(I70
S'0385516665'
p55
tp56
a(I100
S'B001VT3L5A'
p57
tp58
a(I210
S'0804141231'
p59
tp60
asS'navigating the workplace'
p61
(lp62
(I6
S'B00GL3PZ0K'
p63
tp64
asS'dream team'
p65
(lp66
sS'Kansas'
p67
(lp68
sS'creative value'
p69
(lp70
(I76
S'B00ALBR6LO'
p71
tp72
asS'business psychology'
p73
(lp74
(I25
S'0307591549'
p75
tp76
a(I100
S'0385531737'
p77
tp78
a(I123
S'B00G1J1D28'
p79
tp80
a(I127
S'0804136726'
p81
tp82
a(I216
S'B0030DHPGQ'
p83
tp84
asS'work remotely'
p85
(lp86
(I12
S'0804137501'
p87
tp88
a(I86
S'0553446967'
p89
tp90
asS'adding value'
p91
(lp92
(I192
S'B0050DIWHU'
p93
tp94
asS'personal success'
p95
(lp96
sS'personal data collection'
p97
(lp98
(I31
S'B00M60PIXQ'
p99
tp100
asS'health and human potential'
p101
(lp102
(I204
S'0804136726'
p103
tp104
asS'remote work'
p105
(lp106
(I2
S'B00C0ALZ0W'
p107
tp108
a(I61
S'0307951529'
p109
tp110
asS'Christian Romance'
p111
(lp112
sS'founders'
p113
(lp114
sS'connecting'
p115
(lp116
sS'pressure traps'
p117
(lp118
(I5
S'0804136726'
p119
tp120
asS'positive change'
p121
(lp122
(I22
S'0770436730'
p123
tp124
asS'breakthrough creativity'
p125
(lp126
(I58
S'0770434002'
p127
tp128
asS'privacy settings'
p129
(lp130
(I50
S'B00M60PIXQ'
p131
tp132
asS'Spring'
p133
(lp134
sS'telecommuting jobs'
p135
(lp136
(I14
S'B00C0ALZ0W'
p137
tp138
a(I198
S'0307588777'
p139
tp140
asS'love triangle'
p141
(lp142
sS'buggy romance'
p143
(lp144
(I32
S'1400073960'
p145
tp146
a(I37
S'0307446557'
p147
tp148
a(I38
S'B00RKO6OXG'
p149
tp150
a(I47
S'0307446530'
p151
tp152
a(I49
S'B00N6PBH6C'
p153
tp154
a(I58
S'B00G1IV9T6'
p155
tp156
a(I66
S'B007REKL1A'
p157
tp158
a(I71
S'B0019O6J2E'
p159
tp160
asS'graduation books'
p161
(lp162
(I276
S'0804141444'
p163
tp164
asS'Old Order Mennonite'
p165
(lp166
(I27
S'1601426992'
p167
tp168
a(I28
S'0307731332'
p169
tp170
a(I31
S'0307729982'
p171
tp172
a(I46
S'0307730026'
p173
tp174
a(I47
S'1400073960'
p175
tp176
a(I55
S'0307446530'
p177
tp178
a(I56
S'1400072921'
p179
tp180
a(I59
S'0307446557'
p181
tp182
a(I121
S'0307729958'
p183
tp184
a(I131
S'0307731316'
p185
tp186
a(I154
S'1400073987'
p187
tp188
a(I173
S'1400073979'
p189
tp190
a(I175
S'1601427670'
p191
tp192
a(I216
S'1400072948'
p193
tp194
asS're-think'
p195
(lp196
sS'prayer'
p197
(lp198
sS'Religious Romance'
p199
(lp200
sS'Englischer'
p201
(lp202
(I35
S'B00RKO6OXG'
p203
tp204
a(I51
S'B00N6PBH6C'
p205
tp206
a(I83
S'B00G1IV9T6'
p207
tp208
a(I106
S'B007REKL1A'
p209
tp210
a(I131
S'B0019O6J2E'
p211
tp212
a(I133
S'B00540NW8S'
p213
tp214
a(I142
S'B002KJA964'
p215
tp216
a(I148
S'B002PMW112'
p217
tp218
asS'positive genius'
p219
(lp220
(I2
S'0770436730'
p221
tp222
asS'remote business'
p223
(lp224
(I5
S'B00C0ALZ0W'
p225
tp226
asS'work from home careers'
p227
(lp228
(I185
S'0804137501'
p229
tp230
a(I225
S'0307951529'
p231
tp232
a(I245
S'0767930533'
p233
tp234
asS'career plans'
p235
(lp236
(I43
S'0307888908'
p237
tp238
asS'making connections'
p239
(lp240
(I264
S'B00H6JBFOS'
p241
tp242
asS'minimalist'
p243
(lp244
sS'career advice'
p245
(lp246
(I1
S'0553446967'
p247
tp248
a(I39
S'0767927419'
p249
tp250
asS'culture clash'
p251
(lp252
sS'career guides'
p253
(lp254
(I135
S'B005DXOR08'
p255
tp256
asS'unleash genius'
p257
(lp258
(I14
S'B00ALBR6LO'
p259
tp260
asS'clean fiction'
p261
(lp262
sS'communication skills'
p263
(lp264
sS'telecommute'
p265
(lp266
(I12
S'B00C0ALZ0W'
p267
tp268
asS'job for tomorrow'
p269
(lp270
(I18
S'B0050DIWHU'
p271
tp272
a(I65
S'0804140782'
p273
tp274
a(I178
S'0767926129'
p275
tp276
a(I235
S'0385346654'
p277
tp278
asS'woodworking'
p279
(lp280
sS'minimalism'
p281
(lp282
(I8
S'0804137382'
p283
tp284
asS'personal growth'
p285
(lp286
sS'philosophy of creativity'
p287
(lp288
(I191
S'B00ALBR6LO'
p289
tp290
asS'lifeline relationships'
p291
(lp292
(I21
S'B0020HRVG2'
p293
tp294
asS'essentialist'
p295
(lp296
(I1
S'0804137382'
p297
tp298
asS'soft skills'
p299
(lp300
(I151
S'B00GL3PZ0K'
p301
tp302
asS'personalized data'
p303
(lp304
(I25
S'B00M60PIXQ'
p305
tp306
asS'personal data'
p307
(lp308
sS'working remotely'
p309
(lp310
(I12
S'B00C0ALZ0W'
p311
tp312
a(I101
S'1400082471'
p313
tp314
asS'inner circle'
p315
(lp316
(I300
S'B0020HRVG2'
p317
tp318
asS'professional success'
p319
(lp320
(I172
S'B00H6JBFOS'
p321
tp322
a(I289
S'B00N6PESWC'
p323
tp324
asS'gardening'
p325
(lp326
sS'power of relationships'
p327
(lp328
(I268
S'B00H6JBFOS'
p329
tp330
asS'finding happiness'
p331
(lp332
(I144
S'B00BVJG2P6'
p333
tp334
asS'living a good life'
p335
(lp336
(I20
S'0804141444'
p337
tp338
asS'Amish'
p339
(lp340
sS'startup'
p341
(lp342
(I1
S'0804139296'
p343
tp344
a(I2
S'0307887898'
p345
tp346
a(I6
S'0307951529'
p347
tp348
a(I28
S'0307888908'
p349
tp350
a(I122
S'0307463745'
p351
tp352
a(I241
S'0385512481'
p353
tp354
asS'achieve more'
p355
(lp356
(I10
S'0307716902'
p357
tp358
a(I38
S'B00G1J1D28'
p359
tp360
asS'under one roof'
p361
(lp362
(I68
S'B00C0ALZ0W'
p363
tp364
a(I134
S'0385528752'
p365
tp366
a(I176
S'0385346654'
p367
tp368
asS'corporate sparring'
p369
(lp370
(I1
S'0385521332'
p371
tp372
asS'success formula'
p373
(lp374
(I104
S'B00BVJG2P6'
p375
tp376
a(I247
S'0307591549'
p377
tp378
asS'startup success'
p379
(lp380
(I19
S'0307888908'
p381
tp382
a(I35
S'0307887898'
p383
tp384
a(I245
S'0385512481'
p385
tp386
asS'making friends'
p387
(lp388
sS'Women%27s Christian Fiction'
p389
(lp390
sS'AEI'
p391
(lp392
(I28
S'B00GL3PZ0K'
p393
tp394
asS'business relationships'
p395
(lp396
(I114
S'0385346654'
p397
tp398
a(I197
S'0385512058'
p399
tp400
a(I282
S'0385348339'
p401
tp402
asS'adult life'
p403
(lp404
sS'performance anxiety'
p405
(lp406
(I20
S'0804136726'
p407
tp408
asS'business inspiration'
p409
(lp410
(I106
S'B0050DIWHU'
p411
tp412
a(I247
S'B00BVJG2P6'
p413
tp414
asS'productivity tools'
p415
(lp416
(I21
S'B00G1J1D28'
p417
tp418
asS'Contemporary Christian Romance'
p419
(lp420
sS'face pressure'
p421
(lp422
(I11
S'0804136726'
p423
tp424
asS'vital few'
p425
(lp426
(I10
S'0804137382'
p427
tp428
asS'BNB'
p429
(lp430
(I34
S'B00N6PBH6C'
p431
tp432
asS'Contemporary Christian Fiction'
p433
(lp434
sS'digital future'
p435
(lp436
(I208
S'0385347596'
p437
tp438
asS'self growth'
p439
(lp440
sS'creative'
p441
(lp442
(I2
S'038534936X'
p443
tp444
asS'work at home jobs'
p445
(lp446
(I170
S'0307951529'
p447
tp448
a(I306
S'0767930533'
p449
tp450
asS'self help'
p451
(lp452
sS'bed & breakfast'
p453
(lp454
sS'twins'
p455
(lp456
sS'unlock potential'
p457
(lp458
(I138
S'B00ALBR6LO'
p459
tp460
asS'Old Order Amish'
p461
(lp462
(I12
S'1601426992'
p463
tp464
a(I16
S'0307729982'
p465
tp466
a(I33
S'0307446557'
p467
tp468
a(I38
S'0307730026'
p469
tp470
a(I45
S'1400073960'
p471
tp472
a(I53
S'B00N6PBH6C'
p473
tp474
a(I67
S'0307730069'
p475
tp476
a(I69
S'0307730042'
p477
tp478
a(I71
S'B0019O6J2E'
p479
tp480
a(I92
S'0307446530'
p481
tp482
a(I216
S'1400073979'
p483
tp484
a(I256
S'0307729958'
p485
tp486
asS'innovation'
p487
(lp488
(I17
S'0307887898'
p489
tp490
a(I27
S'0307336697'
p491
tp492
a(I59
S'0385512074'
p493
tp494
a(I144
S'B00J6YBOFQ'
p495
tp496
a(I249
S'B00CGI3DWQ'
p497
tp498
asS'success under pressure'
p499
(lp500
(I1
S'0804136726'
p501
tp502
asS'rethink'
p503
(lp504
(I214
S'B00ALBR6LO'
p505
tp506
asS'unlocking your creativity'
p507
(lp508
(I12
S'0770434002'
p509
tp510
asS'buggy fiction'
p511
(lp512
(I27
S'B00N6PBH6C'
p513
tp514
a(I36
S'B00RKO6OXG'
p515
tp516
a(I58
S'B00G1IV9T6'
p517
tp518
a(I67
S'B007REKL1A'
p519
tp520
a(I84
S'B0019O6J2E'
p521
tp522
a(I91
S'B00540NW8S'
p523
tp524
a(I115
S'B002KJA964'
p525
tp526
a(I126
S'B002PMW112'
p527
tp528
asS'professional development'
p529
(lp530
sS'37 signals'
p531
(lp532
(I2
S'0804137501'
p533
tp534
a(I5
S'0307463745'
p535
tp536
asS'bad boss'
p537
(lp538
(I296
S'0767922859'
p539
tp540
asS'co-working space'
p541
(lp542
(I8
S'0804137501'
p543
tp544
a(I14
S'0307951529'
p545
tp546
asS'career growth'
p547
(lp548
(I32
S'0553446967'
p549
tp550
a(I63
S'0307888908'
p551
tp552
a(I297
S'B00H6JBFOS'
p553
tp554
asS'business'
p555
(lp556
(I13
S'0307951529'
p557
tp558
a(I26
S'0307887898'
p559
tp560
a(I47
S'0804139296'
p561
tp562
asS'online reputation management'
p563
(lp564
(I20
S'0385347596'
p565
tp566
asS'Florida'
p567
(lp568
sS'widow'
p569
(lp570
sS'callaboration'
p571
(lp572
(I5
S'0804137501'
p573
tp574
asS'building relationships'
p575
(lp576
(I144
S'B00H6JBFOS'
p577
tp578
asS'how to be more productive at work'
p579
(lp580
(I20
S'B00G1J1D28'
p581
tp582
asS'Women%27s Religious Fiction'
p583
(lp584
sS'personal branding'
p585
(lp586
(I180
S'B0050DIWHU'
p587
tp588
a(I304
S'038552627X'
p589
tp590
asS'COTE'
p591
(lp592
sS'pennsylvania'
p593
(lp594
sS'science of happiness'
p595
(lp596
(I43
S'0307591549'
p597
tp598
a(I64
S'0770436730'
p599
tp600
asS'fullest potential'
p601
(lp602
(I37
S'B00BVJG2P6'
p603
tp604
a(I171
S'0307591549'
p605
tp606
asS'clean reads'
p607
(lp608
sS'networking'
p609
(lp610
(I30
S'0385512058'
p611
tp612
a(I79
S'0385346654'
p613
tp614
asS'full potential'
p615
(lp616
(I288
S'B00ALBR6LO'
p617
tp618
asS'increased productivity'
p619
(lp620
(I49
S'B00G1J1D28'
p621
tp622
a(I186
S'038534645X'
p623
tp624
a(I201
S'0307719227'
p625
tp626
asS'college graduation gifts'
p627
(lp628
(I246
S'0804141444'
p629
tp630
asS'work at home'
p631
(lp632
(I53
S'0307345742'
p633
tp634
a(I282
S'0767930533'
p635
tp636
asS'bed and breakfast'
p637
(lp638
sS'parenthood'
p639
(lp640
sS'connecting to people'
p641
(lp642
(I166
S'B00H6JBFOS'
p643
tp644
a(I284
S'0804139296'
p645
tp646
asS'business success'
p647
(lp648
(I261
S'0307591220'
p649
tp650
asS'diner'
p651
(lp652
sS'virtual workspace'
p653
(lp654
(I6
S'B00C0ALZ0W'
p655
tp656
asS'overcoming obstacles'
p657
(lp658
(I55
S'B00N6PESWC'
p659
tp660
asS'Mennonite'
p661
(lp662
sS'positive psychology'
p663
(lp664
(I22
S'0307591549'
p665
tp666
asS'mistaken identity'
p667
(lp668
(I192
S'B00N6PBH6C'
p669
tp670
asS'getting ahead'
p671
(lp672
(I1
S'0804141444'
p673
tp674
a(I7
S'0307351130'
p675
tp676
a(I83
S'B00H6JBFOS'
p677
tp678
a(I151
S'0553446967'
p679
tp680
asS'essential'
p681
(lp682
(I14
S'0804137382'
p683
tp684
asS'digital footprint'
p685
(lp686
(I3
S'0385347596'
p687
tp688
asS'sparring'
p689
(lp690
(I113
S'B0020HRVG2'
p691
tp692
asS'bonnet romance'
p693
(lp694
(I35
S'1400073960'
p695
tp696
a(I45
S'0307446557'
p697
tp698
a(I47
S'B00RKO6OXG'
p699
tp700
a(I56
S'B00N6PBH6C'
p701
tp702
a(I61
S'0307446530'
p703
tp704
a(I72
S'B00G1IV9T6'
p705
tp706
a(I78
S'B007REKL1A'
p707
tp708
a(I89
S'B0019O6J2E'
p709
tp710
asS'less is more'
p711
(lp712
(I30
S'0385347022'
p713
tp714
asS'amish fiction'
p715
(lp716
(I169
S'B00SPW377S'
p717
tp718
a(I271
S'1601426992'
p719
tp720
asS'inspirational fiction'
p721
(lp722
sS'American Enterprise Institute'
p723
(lp724
(I62
S'B00GL3PZ0K'
p725
tp726
asS'success stories'
p727
(lp728
sS'arts and crafts'
p729
(lp730
sS'Amish Romance'
p731
(lp732
sS'positive inception'
p733
(lp734
(I1
S'0770436730'
p735
tp736
asS'formula for success'
p737
(lp738
(I134
S'0770436730'
p739
tp740
a(I242
S'0307591549'
p741
tp742
asS'self-improvement'
p743
(lp744
sS'psychic'
p745
(lp746
sS'trivial many'
p747
(lp748
(I4
S'0804137382'
p749
tp750
asS'rediscover creativity'
p751
(lp752
(I1
S'0770434002'
p753
tp754
asS'digital privacy'
p755
(lp756
(I54
S'0385347596'
p757
tp758
asS'apple orchard'
p759
(lp760
(I45
S'0307729982'
p761
tp762
a(I63
S'0307730026'
p763
tp764
a(I67
S'0307730042'
p765
tp766
a(I202
S'0307730069'
p767
tp768
asS'nerves of steel'
p769
(lp770
(I15
S'B00N6PESWC'
p771
tp772
a(I119
S'140008198X'
p773
tp774
asS'Religious Fiction'
p775
(lp776
sS'twin'
p777
(lp778
sS'privacy advocate'
p779
(lp780
(I10
S'B00M60PIXQ'
p781
tp782
asS'time management tools'
p783
(lp784
(I99
S'B00G1J1D28'
p785
tp786
asS'social media networking'
p787
(lp788
sS'self-help'
p789
(lp790
sS'single parent'
p791
(lp792
sS'decision making'
p793
(lp794
sS'personal development'
p795
(lp796
sS'social media privacy'
p797
(lp798
(I210
S'0385347596'
p799
tp800
asS'art'
p801
(lp802
sS'corporate ladder'
p803
(lp804
(I29
S'B00H6JBFOS'
p805
tp806
asS'office manners'
p807
(lp808
(I8
S'0804141444'
p809
tp810
asS'increase productivity'
p811
(lp812
(I109
S'B00G1J1D28'
p813
tp814
asS'what really matters'
p815
(lp816
(I216
S'030745178X'
p817
tp818
a(I222
S'B00G1J1D28'
p819
tp820
asS'disruptive innovation'
p821
(lp822
(I46
S'0385512074'
p823
tp824
a(I51
S'0307336697'
p825
tp826
a(I55
S'0307887898'
p827
tp828
a(I84
S'B00ALBR6LO'
p829
tp830
asS'building trust'
p831
(lp832
(I169
S'B0020HRVG2'
p833
tp834
asS'unlock your potential'
p835
(lp836
(I177
S'0770434002'
p837
tp838
asS'creativity'
p839
(lp840
(I8
S'038534936X'
p841
tp842
a(I158
S'0804139296'
p843
tp844
asS'Englischer fiction'
p845
(lp846
(I5
S'B00N6PBH6C'
p847
tp848
a(I10
S'B00RKO6OXG'
p849
tp850
a(I11
S'0307730026'
p851
tp852
a(I12
S'B00G1IV9T6'
p853
tp854
a(I16
S'B0019O6J2E'
p855
tp856
a(I19
S'B00540NW8S'
p857
tp858
a(I20
S'1400073960'
p859
tp860
a(I21
S'0307446530'
p861
tp862
asS'plain fiction'
p863
(lp864
(I278
S'B00N6PBH6C'
p865
tp866
asS'achieving success'
p867
(lp868
(I22
S'0770436730'
p869
tp870
a(I290
S'B001VT3L5A'
p871
tp872
asS'essential living'
p873
(lp874
sS'stress management'
p875
(lp876
sS'pressure management'
p877
(lp878
(I14
S'0804136726'
p879
tp880
asS'leadership'
p881
(lp882
(I136
S'0385523866'
p883
tp884
a(I225
S'0804141231'
p885
tp886
asS'reputation economics'
p887
(lp888
(I1
S'0385347596'
p889
tp890
asS'work from home opportunities'
p891
(lp892
(I62
S'0804137501'
p893
tp894
a(I103
S'0767930533'
p895
tp896
asS'handling pressure'
p897
(lp898
(I1
S'0804136726'
p899
tp900
asS'performance under pressure'
p901
(lp902
(I1
S'0804136726'
p903
tp904
asS'after happiness'
p905
(lp906
(I72
S'B00BVJG2P6'
p907
tp908
asS'creative genius'
p909
(lp910
(I16
S'0770434002'
p911
tp912
a(I296
S'B00BVJG2P6'
p913
tp914
asS'building deep relationships'
p915
(lp916
(I6
S'0385521332'
p917
tp918
a(I144
S'0307589137'
p919
tp920
asS'mental focus'
p921
(lp922
(I198
S'B00G1J1D28'
p923
tp924
asS'Mennonite Romance'
p925
(lp926
(I278
S'1400073979'
p927
tp928
asS'handling stress'
p929
(lp930
(I12
S'B00N6PESWC'
p931
tp932
a(I139
S'0307591549'
p933
tp934
asS'unleash creativity'
p935
(lp936
(I55
S'B00ALBR6LO'
p937
tp938
a(I132
S'038534936X'
p939
tp940
asS'connecting to the world'
p941
(lp942
(I144
S'0385346654'
p943
tp944
asS'millenial privacy'
p945
(lp946
(I1
S'0385347596'
p947
tp948
asS'buggy'
p949
(lp950
sS'trusted team'
p951
(lp952
(I41
S'B0020HRVG2'
p953
tp954
a(I286
S'0804138389'
p955
tp956
asS'online privacy issues'
p957
(lp958
(I52
S'0385347596'
p959
tp960
asS'achieving potential'
p961
(lp962
(I17
S'B00BVJG2P6'
p963
tp964
a(I35
S'B00ALBR6LO'
p965
tp966
asS'christian fiction'
p967
(lp968
sS'working from home'
p969
(lp970
sS'existential intelligence'
p971
(lp972
(I11
S'B0020HRVG2'
p973
tp974
asS'success accelerants'
p975
(lp976
(I1
S'0770436730'
p977
tp978
asS'inspirational romance'
p979
(lp980
sS'real estate footprint'
p981
(lp982
(I3
S'B00C0ALZ0W'
p983
tp984
asS'IHHP'
p985
(lp986
(I2
S'0804136726'
p987
tp988
asS'invest in yourself'
p989
(lp990
(I3
S'0307888908'
p991
tp992
a(I24
S'0385522614'
p993
tp994
asS'online reputation'
p995
(lp996
(I13
S'0385347596'
p997
tp998
asS'know yourself'
p999
(lp1000
sS'power of pressure'
p1001
(lp1002
sS'B&B'
p1003
(lp1004
sS'Contemporary Religious Fiction'
p1005
(lp1006
sS'holiday'
p1007
(lp1008
sS'Kapp'
p1009
(lp1010
(I68
S'B00RKO6OXG'
p1011
tp1012
a(I97
S'B00N6PBH6C'
p1013
tp1014
a(I193
S'B00G1IV9T6'
p1015
tp1016
a(I259
S'B007REKL1A'
p1017
tp1018
a(I298
S'B0019O6J2E'
p1019
tp1020
asS'Mennonite fiction'
p1021
(lp1022
(I203
S'B00N6PBH6C'
p1023
tp1024
a(I226
S'B00RKO6OXG'
p1025
tp1026
a(I239
S'1601428146'
p1027
tp1028
a(I287
S'B00RKVWRJY'
p1029
tp1030
asS'digital reputation'
p1031
(lp1032
(I1
S'0385347596'
p1033
tp1034
asS'plain'
p1035
(lp1036
sS'restaurant'
p1037
(lp1038
sS'career advancement'
p1039
(lp1040
(I13
S'0553446967'
p1041
tp1042
a(I35
S'B00GL3PZ0K'
p1043
tp1044
a(I41
S'B00BVJG2P6'
p1045
tp1046
asS'meaningful relationships'
p1047
(lp1048
(I21
S'0385346654'
p1049
tp1050
a(I139
S'B0020HRVG2'
p1051
tp1052
asS'pressure solutions'
p1053
(lp1054
(I197
S'B00N6PESWC'
p1055
tp1056
asS'building relationships at work'
p1057
(lp1058
(I56
S'0385521332'
p1059
tp1060
a(I295
S'0385347618'
p1061
tp1062
asS'personal data protection'
p1063
(lp1064
(I47
S'0385347596'
p1065
tp1066
asS'career guide'
p1067
(lp1068
(I249
S'B005DXOR08'
p1069
tp1070
asS'meaningful connections'
p1071
(lp1072
(I15
S'B00H6JBFOS'
p1073
tp1074
a(I36
S'B0020HRVG2'
p1075
tp1076
a(I56
S'0385529066'
p1077
tp1078
a(I141
S'0307888908'
p1079
tp1080
a(I146
S'0770436730'
p1081
tp1082
a(I206
S'030746170X'
p1083
tp1084
asS'work from home'
p1085
(lp1086
sS'reputation management'
p1087
(lp1088
(I17
S'0385347596'
p1089
tp1090
asS'motivational books'
p1091
(lp1092
sS'novella'
p1093
(lp1094
sS'effective time management'
p1095
(lp1096
(I95
S'B00G1J1D28'
p1097
tp1098
asS'career development'
p1099
(lp1100
(I138
S'0553446967'
p1101
tp1102
a(I152
S'0767927419'
p1103
tp1104
asS'intelligent risk'
p1105
(lp1106
(I21
S'B0050DIWHU'
p1107
tp1108
asS'personal brand'
p1109
(lp1110
(I28
S'038552627X'
p1111
tp1112
a(I64
S'B0050DIWHU'
p1113
tp1114
asS'mental clairty'
p1115
(lp1116
(I2
S'0804137382'
p1117
tp1118
asS'Amish recipes'
p1119
(lp1120
(I42
S'0307729982'
p1121
tp1122
a(I90
S'0307730026'
p1123
tp1124
a(I123
S'B00540NW8S'
p1125
tp1126
a(I124
S'0307730042'
p1127
tp1128
asS'Amish cooking'
p1129
(lp1130
(I34
S'0307729982'
p1131
tp1132
a(I63
S'0307730026'
p1133
tp1134
a(I109
S'0307446557'
p1135
tp1136
asS'bonnet fiction'
p1137
(lp1138
(I10
S'B00RKO6OXG'
p1139
tp1140
a(I29
S'B00N6PBH6C'
p1141
tp1142
a(I66
S'B00G1IV9T6'
p1143
tp1144
a(I76
S'B0019O6J2E'
p1145
tp1146
a(I84
S'B007REKL1A'
p1147
tp1148
a(I96
S'B002KJA964'
p1149
tp1150
a(I108
S'B00540NW8S'
p1151
tp1152
a(I121
S'B002PMW112'
p1153
tp1154
asS'work from home jobs'
p1155
(lp1156
(I257
S'0307951529'
p1157
tp1158
asS'add value'
p1159
(lp1160
(I36
S'B0050DIWHU'
p1161
tp1162
asS'being more productive'
p1163
(lp1164
(I20
S'B00G1J1D28'
p1165
tp1166
asS'personal improvement'
p1167
(lp1168
(I223
S'B00N6PESWC'
p1169
tp1170
asS'college graduation books'
p1171
(lp1172
(I99
S'0804141444'
p1173
tp1174
asS'plain romance'
p1175
(lp1176
(I170
S'B00RKO6OXG'
p1177
tp1178
a(I186
S'B00N6PBH6C'
p1179
tp1180
a(I289
S'1400073960'
p1181
tp1182
a(I303
S'B00540NW8S'
p1183
tp1184
asS'Englisher romance'
p1185
(lp1186
sS'clean romance'
p1187
(lp1188
sS'relationship building'
p1189
(lp1190
(I158
S'B00H6JBFOS'
p1191
tp1192
asS'Christmas'
p1193
(lp1194
sS'digital privacy issues'
p1195
(lp1196
(I3
S'0385347596'
p1197
tp1198
asS'garden'
p1199
(lp1200
sS'business classics'
p1201
(lp1202
(I130
S'B00H6JBFOS'
p1203
tp1204
asS'positive inspiration'
p1205
(lp1206
(I91
S'0770436730'
p1207
tp1208
asS'conversion'
p1209
(lp1210
sS'transform your career'
p1211
(lp1212
(I2
S'0307888908'
p1213
tp1214
asS'arts & crafts'
p1215
(lp1216
sS'change your thinking'
p1217
(lp1218
(I277
S'0770436730'
p1219
tp1220
asS'professional relationships'
p1221
(lp1222
(I134
S'0385346654'
p1223
tp1224
asS'online presense'
p1225
(lp1226
(I2
S'B00M60PIXQ'
p1227
tp1228
asS'unlock your creativity'
p1229
(lp1230
(I31
S'0770434002'
p1231
tp1232
asS'less but better'
p1233
(lp1234
(I35
S'0307339459'
p1235
tp1236
a(I53
S'0804137382'
p1237
tp1238
a(I298
S'0385347022'
p1239
tp1240
asS'professional inspiration'
p1241
(lp1242
(I125
S'B0050DIWHU'
p1243
tp1244
a(I281
S'B00BVJG2P6'
p1245
tp1246
asS'getting what you want'
p1247
(lp1248
(I81
S'0804141444'
p1249
tp1250
a(I230
S'0307716902'
p1251
tp1252
a(I250
S'0385346654'
p1253
tp1254
asS'widowhood'
p1255
(lp1256
(I163
S'1400073960'
p1257
tp1258
asS'rape'
p1259
(lp1260
sS'living well'
p1261
(lp1262
sS'shunning'
p1263
(lp1264
(I109
S'1400072921'
p1265
tp1266
asS'time management skills'
p1267
(lp1268
(I265
S'B00G1J1D28'
p1269
tp1270
asS'remote jobs'
p1271
(lp1272
(I1
S'B00C0ALZ0W'
p1273
tp1274
asS'self improvement'
p1275
(lp1276
sS'bonnet'
p1277
(lp1278
sS'switched at birth'
p1279
(lp1280
(I85
S'B00RKO6OXG'
p1281
tp1282
asS'brand reputation'
p1283
(lp1284
(I5
S'0385347596'
p1285
tp1286
a(I286
S'0385346948'
p1287
tp1288
asS'design your life'
p1289
(lp1290
sS'brothers'
p1291
(lp1292
sS'goal-setting'
p1293
(lp1294
sS'decisions under pressure'
p1295
(lp1296
(I1
S'0804136726'
p1297
tp1298
a(I88
S'0804137757'
p1299
tp1300
a(I249
S'0307460266'
p1301
tp1302
a(I297
S'0307952568'
p1303
tp1304
asS'increasing productivity'
p1305
(lp1306
(I28
S'B00G1J1D28'
p1307
tp1308
a(I150
S'0307887898'
p1309
tp1310
a(I198
S'038534645X'
p1311
tp1312
a(I210
S'0307719227'
p1313
tp1314
asS'self-discovery'
p1315
(lp1316
sS'decision-making'
p1317
(lp1318
(I96
S'0307956393'
p1319
tp1320
asS'Advent'
p1321
(lp1322
sS'how to be more produtive'
p1323
(lp1324
(I1
S'B00G1J1D28'
p1325
tp1326
asS'entrepreneurship'
p1327
(lp1328
(I2
S'0307951529'
p1329
tp1330
a(I5
S'0804139296'
p1331
tp1332
a(I10
S'0307887898'
p1333
tp1334
a(I128
S'0307463745'
p1335
tp1336
asS'Christian Fiction'
p1337
(lp1338
sS'achieve potential'
p1339
(lp1340
(I230
S'B00ALBR6LO'
p1341
tp1342
asS'data privacy'
p1343
(lp1344
(I288
S'B00M60PIXQ'
p1345
tp1346
asS'privacy issues'
p1347
(lp1348
(I275
S'B00M60PIXQ'
p1349
tp1350
asS'work remotely from home'
p1351
(lp1352
(I4
S'B00C0ALZ0W'
p1353
tp1354
asS'first job after college'
p1355
(lp1356
(I10
S'0804141444'
p1357
tp1358
a(I24
S'0385346654'
p1359
tp1360
asS'build a career'
p1361
(lp1362
(I62
S'0553446967'
p1363
tp1364
a(I89
S'0307888908'
p1365
tp1366
a(I194
S'0767927672'
p1367
tp1368
asS'unlocking potential'
p1369
(lp1370
(I113
S'038534936X'
p1371
tp1372
a(I152
S'B00ALBR6LO'
p1373
tp1374
asS'reputation rich'
p1375
(lp1376
(I1
S'0385347596'
p1377
tp1378
a(I86
S'0307341453'
p1379
tp1380
asS'psychology'
p1381
(lp1382
sS'power of reputation'
p1383
(lp1384
(I10
S'0385347596'
p1385
tp1386
asS'reputation.com'
p1387
(lp1388
(I1
S'0385347596'
p1389
tp1390
asS'premonitions'
p1391
(lp1392
(I266
S'B00G1IV9T6'
p1393
tp1394
asS'Amish quilt'
p1395
(lp1396
(I38
S'0307729958'
p1397
tp1398
a(I59
S'1601427131'
p1399
tp1400
a(I61
S'B0019O6J2E'
p1401
tp1402
a(I95
S'B0019O6J2O'
p1403
tp1404
a(I98
S'B00139XSKQ'
p1405
tp1406
asS'orchard'
p1407
(lp1408
(I213
S'0307729982'
p1409
tp1410
a(I228
S'0307730042'
p1411
tp1412
a(I234
S'0307730069'
p1413
tp1414
asS'privacy management'
p1415
(lp1416
sS'telecommuting'
p1417
(lp1418
(I1
S'0804137501'
p1419
tp1420
asS'professional growth'
p1421
(lp1422
(I24
S'B00H6JBFOS'
p1423
tp1424
a(I88
S'B00GL3PZ0K'
p1425
tp1426
a(I102
S'B00BVJG2P6'
p1427
tp1428
a(I135
S'B0050DIWHU'
p1429
tp1430
a(I261
S'0307986144'
p1431
tp1432
a(I278
S'B000FCKPO4'
p1433
tp1434
asS'workplace culture'
p1435
(lp1436
(I18
S'0767920570'
p1437
tp1438
a(I233
S'B00GL3PZ0K'
p1439
tp1440
a(I272
S'0307591549'
p1441
tp1442
asS'building a career'
p1443
(lp1444
(I32
S'0307888908'
p1445
tp1446
a(I34
S'0307719561'
p1447
tp1448
a(I103
S'0553446967'
p1449
tp1450
asS'trusting relationships'
p1451
(lp1452
(I9
S'0385521332'
p1453
tp1454
a(I51
S'0385346654'
p1455
tp1456
asS'nature of pressure'
p1457
(lp1458
(I4
S'0804136726'
p1459
tp1460
asS'Maine'
p1461
(lp1462
sS'adapt to the future'
p1463
(lp1464
(I1
S'0307888908'
p1465
tp1466
asS'deep relationships'
p1467
(lp1468
(I114
S'0385521332'
p1469
tp1470
asS'college graduation gift'
p1471
(lp1472
(I272
S'0804141444'
p1473
tp1474
asS'interview stress'
p1475
(lp1476
(I2
S'B00N6PESWC'
p1477
tp1478
asS'startup founders'
p1479
(lp1480
(I10
S'0307888908'
p1481
tp1482
a(I13
S'0307887898'
p1483
tp1484
a(I16
S'0804139296'
p1485
tp1486
asS'power of choice'
p1487
(lp1488
(I123
S'B00G1J1D28'
p1489
tp1490
a(I282
S'0307719227'
p1491
tp1492
asS'spreading happiness'
p1493
(lp1494
(I1
S'0770436730'
p1495
tp1496
a(I3
S'0307591549'
p1497
tp1498
asS'building trusting relationships'
p1499
(lp1500
(I5
S'0385521332'
p1501
tp1502
asS'positive thinking'
p1503
(lp1504
sS'social media mistakes'
p1505
(lp1506
(I90
S'0385347596'
p1507
tp1508
asS'outside the box thinking'
p1509
(lp1510
(I148
S'0770434002'
p1511
tp1512
as.